target datalayout = "e-m:e-p270:32:32-p271:32:32-p272:64:64-i64:64-i128:128-f80:128-n8:16:32:64-S128"
target triple = "x86_64-pc-linux-gnu"

%struct.blob = type { ptr, ptr, i64, i64, i32 }

@.str.1 = private unnamed_addr constant [10 x i8] c"b != NULL\00", align 1
@.str.2 = private unnamed_addr constant [108 x i8] c"generated/home/dtcxzyw/WorkSpace/Projects/compilers/llvm-opt-benchmark/bench/clamav/clamav/libclamav/blob.c\00", align 1
@.str.9 = private unnamed_addr constant [12 x i8] c"b->len == 0\00", align 1
@.str.10 = private unnamed_addr constant [13 x i8] c"b->size == 0\00", align 1
@__PRETTY_FUNCTION__.blobGrow = private unnamed_addr constant [29 x i8] c"int blobGrow(blob *, size_t)\00", align 1
@.str.16 = private unnamed_addr constant [21 x i8] c"Growing closed blob\0A\00", align 1

; Function Attrs: nounwind uwtable
define i32 @blobGrow(ptr noundef %0, i64 noundef %1) #0 {
  %3 = alloca i32, align 4
  %4 = alloca ptr, align 8
  %5 = alloca i64, align 8
  %6 = alloca ptr, align 8
  store ptr %0, ptr %4, align 8
  store i64 %1, ptr %5, align 8
  %7 = load ptr, ptr %4, align 8
  %8 = icmp ne ptr %7, null
  br i1 %8, label %9, label %10

9:                                                ; preds = %2
  br label %11

10:                                               ; preds = %2
  call void @__assert_fail(ptr noundef @.str.1, ptr noundef @.str.2, i32 noundef 368, ptr noundef @__PRETTY_FUNCTION__.blobGrow) #8
  unreachable

11:                                               ; preds = %9
  %12 = load i64, ptr %5, align 8
  %13 = icmp eq i64 %12, 0
  br i1 %13, label %14, label %15

14:                                               ; preds = %11
  store i32 0, ptr %3, align 4
  br label %84

15:                                               ; preds = %11
  %16 = load ptr, ptr %4, align 8
  %17 = getelementptr inbounds %struct.blob, ptr %16, i32 0, i32 4
  %18 = load i32, ptr %17, align 8
  %19 = icmp ne i32 %18, 0
  br i1 %19, label %20, label %23

20:                                               ; preds = %15
  call void (ptr, ...) @cli_warnmsg(ptr noundef @.str.16)
  %21 = load ptr, ptr %4, align 8
  %22 = getelementptr inbounds %struct.blob, ptr %21, i32 0, i32 4
  store i32 0, ptr %22, align 8
  br label %23

23:                                               ; preds = %20, %15
  %24 = load ptr, ptr %4, align 8
  %25 = getelementptr inbounds %struct.blob, ptr %24, i32 0, i32 1
  %26 = load ptr, ptr %25, align 8
  %27 = icmp eq ptr %26, null
  br i1 %27, label %28, label %56

28:                                               ; preds = %23
  %29 = load ptr, ptr %4, align 8
  %30 = getelementptr inbounds %struct.blob, ptr %29, i32 0, i32 2
  %31 = load i64, ptr %30, align 8
  %32 = icmp eq i64 %31, 0
  br i1 %32, label %33, label %34

33:                                               ; preds = %28
  br label %35

34:                                               ; preds = %28
  call void @__assert_fail(ptr noundef @.str.9, ptr noundef @.str.2, i32 noundef 385, ptr noundef @__PRETTY_FUNCTION__.blobGrow) #8
  unreachable

35:                                               ; preds = %33
  %36 = load ptr, ptr %4, align 8
  %37 = getelementptr inbounds %struct.blob, ptr %36, i32 0, i32 3
  %38 = load i64, ptr %37, align 8
  %39 = icmp eq i64 %38, 0
  br i1 %39, label %40, label %41

40:                                               ; preds = %35
  br label %42

41:                                               ; preds = %35
  call void @__assert_fail(ptr noundef @.str.10, ptr noundef @.str.2, i32 noundef 386, ptr noundef @__PRETTY_FUNCTION__.blobGrow) #8
  unreachable

42:                                               ; preds = %40
  %43 = load i64, ptr %5, align 8
  %44 = call ptr @cli_max_malloc(i64 noundef %43)
  %45 = load ptr, ptr %4, align 8
  %46 = getelementptr inbounds %struct.blob, ptr %45, i32 0, i32 1
  store ptr %44, ptr %46, align 8
  %47 = load ptr, ptr %4, align 8
  %48 = getelementptr inbounds %struct.blob, ptr %47, i32 0, i32 1
  %49 = load ptr, ptr %48, align 8
  %50 = icmp ne ptr %49, null
  br i1 %50, label %51, label %55

51:                                               ; preds = %42
  %52 = load i64, ptr %5, align 8
  %53 = load ptr, ptr %4, align 8
  %54 = getelementptr inbounds %struct.blob, ptr %53, i32 0, i32 3
  store i64 %52, ptr %54, align 8
  br label %55

55:                                               ; preds = %51, %42
  br label %78

56:                                               ; preds = %23
  %57 = load ptr, ptr %4, align 8
  %58 = getelementptr inbounds %struct.blob, ptr %57, i32 0, i32 1
  %59 = load ptr, ptr %58, align 8
  %60 = load ptr, ptr %4, align 8
  %61 = getelementptr inbounds %struct.blob, ptr %60, i32 0, i32 3
  %62 = load i64, ptr %61, align 8
  %63 = load i64, ptr %5, align 8
  %64 = add i64 %62, %63
  %65 = call ptr @cli_max_realloc(ptr noundef %59, i64 noundef %64)
  store ptr %65, ptr %6, align 8
  %66 = load ptr, ptr %6, align 8
  %67 = icmp ne ptr %66, null
  br i1 %67, label %68, label %77

68:                                               ; preds = %56
  %69 = load i64, ptr %5, align 8
  %70 = load ptr, ptr %4, align 8
  %71 = getelementptr inbounds %struct.blob, ptr %70, i32 0, i32 3
  %72 = load i64, ptr %71, align 8
  %73 = add nsw i64 %72, %69
  store i64 %73, ptr %71, align 8
  %74 = load ptr, ptr %6, align 8
  %75 = load ptr, ptr %4, align 8
  %76 = getelementptr inbounds %struct.blob, ptr %75, i32 0, i32 1
  store ptr %74, ptr %76, align 8
  br label %77

77:                                               ; preds = %68, %56
  br label %78

78:                                               ; preds = %77, %55
  %79 = load ptr, ptr %4, align 8
  %80 = getelementptr inbounds %struct.blob, ptr %79, i32 0, i32 1
  %81 = load ptr, ptr %80, align 8
  %82 = icmp ne ptr %81, null
  %83 = select i1 %82, i32 0, i32 20
  store i32 %83, ptr %3, align 4
  br label %84

84:                                               ; preds = %78, %14
  %85 = load i32, ptr %3, align 4
  ret i32 %85
}