; Function Attrs: nounwind uwtable
define i32 @blobGrow(ptr noundef %0, i64 noundef %1) local_unnamed_addr #2 {
  %.not = icmp eq ptr %0, null
  br i1 %.not, label %3, label %4

3:                                                ; preds = %2
  tail call void @__assert_fail(ptr noundef nonnull @.str.1, ptr noundef nonnull @.str.2, i32 noundef 368, ptr noundef nonnull @__PRETTY_FUNCTION__.blobGrow) #17
  unreachable

4:                                                ; preds = %2
  %5 = icmp eq i64 %1, 0
  br i1 %5, label %37, label %6

6:                                                ; preds = %4
  %7 = getelementptr inbounds i8, ptr %0, i64 32
  %8 = load i32, ptr %7, align 8
  %.not25 = icmp eq i32 %8, 0
  br i1 %.not25, label %10, label %9

9:                                                ; preds = %6
  tail call void (ptr, ...) @cli_warnmsg(ptr noundef nonnull @.str.16) #16
  store i32 0, ptr %7, align 8
  br label %10

10:                                               ; preds = %9, %6
  %11 = getelementptr inbounds i8, ptr %0, i64 8
  %12 = load ptr, ptr %11, align 8
  %13 = icmp eq ptr %12, null
  br i1 %13, label %14, label %27

14:                                               ; preds = %10
  %15 = getelementptr inbounds i8, ptr %0, i64 16
  %16 = load i64, ptr %15, align 8
  %17 = icmp eq i64 %16, 0
  br i1 %17, label %19, label %18

18:                                               ; preds = %14
  tail call void @__assert_fail(ptr noundef nonnull @.str.9, ptr noundef nonnull @.str.2, i32 noundef 385, ptr noundef nonnull @__PRETTY_FUNCTION__.blobGrow) #17
  unreachable

19:                                               ; preds = %14
  %20 = getelementptr inbounds i8, ptr %0, i64 24
  %21 = load i64, ptr %20, align 8
  %22 = icmp eq i64 %21, 0
  br i1 %22, label %24, label %23

23:                                               ; preds = %19
  tail call void @__assert_fail(ptr noundef nonnull @.str.10, ptr noundef nonnull @.str.2, i32 noundef 386, ptr noundef nonnull @__PRETTY_FUNCTION__.blobGrow) #17
  unreachable

24:                                               ; preds = %19
  %25 = tail call ptr @cli_max_malloc(i64 noundef %1) #16
  store ptr %25, ptr %11, align 8
  %.not27 = icmp eq ptr %25, null
  br i1 %.not27, label %37, label %26

26:                                               ; preds = %24
  store i64 %1, ptr %20, align 8
  br label %37

27:                                               ; preds = %10
  %28 = getelementptr inbounds i8, ptr %0, i64 24
  %29 = load i64, ptr %28, align 8
  %30 = add i64 %29, %1
  %31 = tail call ptr @cli_max_realloc(ptr noundef nonnull %12, i64 noundef %30) #16
  %.not26 = icmp eq ptr %31, null
  br i1 %.not26, label %._crit_edge, label %34

._crit_edge:                                      ; preds = %27
  %.pre = load ptr, ptr %11, align 8
  %32 = icmp eq ptr %.pre, null
  %33 = select i1 %32, i32 20, i32 0
  br label %37

34:                                               ; preds = %27
  %35 = load i64, ptr %28, align 8
  %36 = add nsw i64 %35, %1
  store i64 %36, ptr %28, align 8
  store ptr %31, ptr %11, align 8
  br label %37

37:                                               ; preds = %26, %24, %34, %._crit_edge, %4
  %.0 = phi i32 [ 0, %4 ], [ %33, %._crit_edge ], [ 0, %34 ], [ 20, %24 ], [ 0, %26 ]
  ret i32 %.0
}